target datalayout = "e-m:e-p270:32:32-p271:32:32-p272:64:64-i64:64-i128:128-f80:128-n8:16:32:64-S128"
target triple = "x86_64-unknown-linux-gnu"

%class.symbol = type { ptr }
%class.arith_util = type { ptr, ptr }
%class.bv_util = type { %class.bv_recognizers, ptr, ptr }
%class.bv_recognizers = type { i32 }
%class.array_util = type { %class.array_recognizers, ptr }
%class.array_recognizers = type { i32 }
%class.obj_hashtable = type { %class.core_hashtable.base.59, [4 x i8] }
%class.core_hashtable.base.59 = type <{ ptr, i32, i32, i32 }>
%class.func_decl_dependencies = type { ptr, %class.obj_map.62 }
%class.obj_map.62 = type { %class.core_hashtable.63 }
%class.core_hashtable.63 = type <{ ptr, i32, i32, i32, [4 x i8] }>
%class.random_gen = type { i32 }
%class.ptr_vector.46 = type { %class.vector.47 }
%class.vector.47 = type { ptr }
%class.ptr_vector = type { %class.vector.3 }
%class.vector.3 = type { ptr }
%class.ref_vector = type { %class.ref_vector_core }
%class.ref_vector_core = type { %class.ref_manager_wrapper, %class.ptr_vector }
%class.ref_manager_wrapper = type { ptr }
%class.obj_mark = type { %struct.default_t2uint, %class.bit_vector }
%struct.default_t2uint = type { i8 }
%class.bit_vector = type { i32, i32, ptr }
%class.obj_map = type { %class.core_hashtable }
%class.core_hashtable = type <{ ptr, i32, i32, i32, [4 x i8] }>
%class.expr = type { %class.ast }
%class.ast = type { i32, i24, i32, i32 }
%"class.smt::model_finder" = type { %class.quantifier2macro_infos, ptr, ptr, %class.scoped_ptr.296, %class.scoped_ptr.297, %class.obj_map.298, %class.ptr_vector.46, %class.func_decl_dependencies, %class.svector.303, %class.ref_vector }
%class.quantifier2macro_infos = type { ptr }
%class.scoped_ptr.296 = type { ptr }
%class.scoped_ptr.297 = type { ptr }
%class.obj_map.298 = type { %class.core_hashtable.299 }
%class.core_hashtable.299 = type <{ ptr, i32, i32, i32, [4 x i8] }>
%class.svector.303 = type { %class.vector.304 }
%class.vector.304 = type { ptr }
%struct.pair_hash = type { %struct.unsigned_hash }
%struct.unsigned_hash = type { i8 }
%"class.smt::mf::auf_solver" = type { %"class.smt::mf::evaluator", ptr, %class.arith_util, %class.bv_util, %class.array_util, %class.ptr_vector.323, i32, [4 x i8], %class.map.325, %class.map.325, %class.obj_map.330, %class.ref_vector, ptr, [2 x %class.obj_map], %class.ref_vector, %class.ptr_vector.323, ptr, %class.random_gen, [4 x i8], %class.obj_hashtable, %class.ptr_vector, %class.obj_mark }
%"class.smt::mf::evaluator" = type { ptr }
%class.map.325 = type { %class.table2map.326 }
%class.table2map.326 = type { %class.core_hashtable.327 }
%class.core_hashtable.327 = type <{ %"struct.table2map<default_map_entry<std::pair<ast *, unsigned int>, smt::mf::node *>, pair_hash<obj_ptr_hash<ast>, unsigned_hash>, default_eq<std::pair<ast *, unsigned int>>>::entry_hash_proc", [7 x i8], ptr, i32, i32, i32, [4 x i8] }>
%"struct.table2map<default_map_entry<std::pair<ast *, unsigned int>, smt::mf::node *>, pair_hash<obj_ptr_hash<ast>, unsigned_hash>, default_eq<std::pair<ast *, unsigned int>>>::entry_hash_proc" = type { %struct.pair_hash }
%class.obj_map.330 = type { %class.core_hashtable.331 }
%class.core_hashtable.331 = type <{ ptr, i32, i32, i32, [4 x i8] }>
%class.ptr_vector.323 = type { %class.vector.324 }
%class.vector.324 = type { ptr }
%class.obj_ref.338 = type { ptr, ptr }
%class.quantifier_macro_info = type { ptr, ptr, %class.obj_ref.338, i8, i8, [6 x i8], %class.obj_hashtable, %class.scoped_ptr_vector, %class.obj_ref.341 }
%class.scoped_ptr_vector = type { %class.ptr_vector.339 }
%class.ptr_vector.339 = type { %class.vector.340 }
%class.vector.340 = type { ptr }
%class.obj_ref.341 = type { ptr, ptr }
%"struct.std::pair" = type <{ ptr, i32, [4 x i8] }>
%class.quantifier = type { %class.expr, i32, i32, ptr, ptr, i32, i32, i8, i8, %class.symbol, %class.symbol, i32, i32, [0 x i8] }
%class.default_hash_entry = type { i32, i32, %struct._key_data }
%struct._key_data = type { %"struct.std::pair", ptr }
%"class.smt::mf::node" = type { i32, ptr, i32, ptr, i8, i8, %class.ptr_vector.323, %class.ptr_vector, %class.scoped_ptr.395, ptr, ptr }
%class.scoped_ptr.395 = type { ptr }

; Function Attrs: mustprogress nounwind uwtable
define linkonce_odr hidden noundef zeroext i1 @_ZNK3smt2mf4node7is_rootEv(ptr noundef nonnull align 8 dereferenceable(80) %this) #4 comdat align 2 {
entry:
  %this.addr = alloca ptr, align 8
  store ptr %this, ptr %this.addr, align 8
  %this1 = load ptr, ptr %this.addr, align 8
  %m_find = getelementptr inbounds %"class.smt::mf::node", ptr %this1, i32 0, i32 1
  %0 = load ptr, ptr %m_find, align 8
  %cmp = icmp eq ptr %0, null
  ret i1 %cmp
}

; Function Attrs: mustprogress nounwind uwtable
define linkonce_odr hidden void @_ZN9_key_dataISt4pairIP3astjEPN3smt2mf4nodeEEC2ERKS3_(ptr noundef nonnull align 8 dereferenceable(24) %this, ptr noundef nonnull align 8 dereferenceable(12) %k) unnamed_addr #4 comdat align 2 {
entry:
  %this.addr = alloca ptr, align 8
  %k.addr = alloca ptr, align 8
  store ptr %this, ptr %this.addr, align 8
  store ptr %k, ptr %k.addr, align 8
  %this1 = load ptr, ptr %this.addr, align 8
  %m_key = getelementptr inbounds %struct._key_data, ptr %this1, i32 0, i32 0
  %0 = load ptr, ptr %k.addr, align 8
  call void @llvm.memcpy.p0.p0.i64(ptr align 8 %m_key, ptr align 8 %0, i64 16, i1 false)
  ret void
}

; Function Attrs: mustprogress nounwind uwtable
define linkonce_odr hidden noundef ptr @_ZNK10scoped_ptrIN3smt2mf17instantiation_setEE3getEv(ptr noundef nonnull align 8 dereferenceable(8) %this) #4 comdat align 2 {
entry:
  %this.addr = alloca ptr, align 8
  store ptr %this, ptr %this.addr, align 8
  %this1 = load ptr, ptr %this.addr, align 8
  %m_ptr = getelementptr inbounds %class.scoped_ptr.395, ptr %this1, i32 0, i32 0
  %0 = load ptr, ptr %m_ptr, align 8
  ret ptr %0
}

; Function Attrs: mustprogress uwtable
define linkonce_odr hidden noundef ptr @_ZNK3smt2mf4node8get_rootEv(ptr noundef nonnull align 8 dereferenceable(80) %this) #5 comdat align 2 {
entry:
  %this.addr = alloca ptr, align 8
  %curr = alloca ptr, align 8
  store ptr %this, ptr %this.addr, align 8
  %this1 = load ptr, ptr %this.addr, align 8
  store ptr %this1, ptr %curr, align 8
  br label %while.cond

while.cond:                                       ; preds = %while.body, %entry
  %0 = load ptr, ptr %curr, align 8
  %call = call noundef zeroext i1 @_ZNK3smt2mf4node7is_rootEv(ptr noundef nonnull align 8 dereferenceable(80) %0)
  %lnot = xor i1 %call, true
  br i1 %lnot, label %while.body, label %while.end

while.body:                                       ; preds = %while.cond
  %1 = load ptr, ptr %curr, align 8
  %m_find = getelementptr inbounds %"class.smt::mf::node", ptr %1, i32 0, i32 1
  %2 = load ptr, ptr %m_find, align 8
  store ptr %2, ptr %curr, align 8
  br label %while.cond, !llvm.loop !51

while.end:                                        ; preds = %while.cond
  %3 = load ptr, ptr %curr, align 8
  ret ptr %3
}

; Function Attrs: mustprogress nounwind uwtable
define linkonce_odr hidden noundef nonnull align 8 dereferenceable(24) ptr @_ZN18default_hash_entryI9_key_dataISt4pairIP3astjEPN3smt2mf4nodeEEE8get_dataEv(ptr noundef nonnull align 8 dereferenceable(32) %this) #4 comdat align 2 {
entry:
  %this.addr = alloca ptr, align 8
  store ptr %this, ptr %this.addr, align 8
  %this1 = load ptr, ptr %this.addr, align 8
  %m_data = getelementptr inbounds %class.default_hash_entry, ptr %this1, i32 0, i32 2
  ret ptr %m_data
}

; Function Attrs: mustprogress uwtable
define linkonce_odr hidden noundef ptr @_ZNK9table2mapI17default_map_entryISt4pairIP3astjEPN3smt2mf4nodeEE9pair_hashI12obj_ptr_hashIS2_E13unsigned_hashE10default_eqIS4_EE9find_coreERKS4_(ptr noundef nonnull align 8 dereferenceable(32) %this, ptr noundef nonnull align 8 dereferenceable(12) %k) #5 comdat align 2 {
entry:
  %this.addr = alloca ptr, align 8
  %k.addr = alloca ptr, align 8
  %ref.tmp = alloca %struct._key_data, align 8
  store ptr %this, ptr %this.addr, align 8
  store ptr %k, ptr %k.addr, align 8
  %this1 = load ptr, ptr %this.addr, align 8
  %m_table = getelementptr inbounds %class.table2map.326, ptr %this1, i32 0, i32 0
  %0 = load ptr, ptr %k.addr, align 8
  call void @_ZN9_key_dataISt4pairIP3astjEPN3smt2mf4nodeEEC2ERKS3_(ptr noundef nonnull align 8 dereferenceable(24) %ref.tmp, ptr noundef nonnull align 8 dereferenceable(12) %0)
  %call = call noundef ptr @_ZNK14core_hashtableI17default_map_entryISt4pairIP3astjEPN3smt2mf4nodeEEN9table2mapIS9_9pair_hashI12obj_ptr_hashIS2_E13unsigned_hashE10default_eqIS4_EE15entry_hash_procENSI_13entry_eq_procEE9find_coreERK9_key_dataIS4_S8_E(ptr noundef nonnull align 8 dereferenceable(28) %m_table, ptr noundef nonnull align 8 dereferenceable(24) %ref.tmp)
  ret ptr %call
}

; Function Attrs: mustprogress nounwind uwtable
define linkonce_odr hidden noundef ptr @_ZNK7obj_refI10quantifier11ast_managerEcvPS0_Ev(ptr noundef nonnull align 8 dereferenceable(16) %this) #4 comdat align 2 {
entry:
  %this.addr = alloca ptr, align 8
  store ptr %this, ptr %this.addr, align 8
  %this1 = load ptr, ptr %this.addr, align 8
  %m_obj = getelementptr inbounds %class.obj_ref.338, ptr %this1, i32 0, i32 0
  %0 = load ptr, ptr %m_obj, align 8
  ret ptr %0
}

; Function Attrs: mustprogress uwtable
define linkonce_odr hidden noundef ptr @_ZN3smt2mf4node21get_instantiation_setEv(ptr noundef nonnull align 8 dereferenceable(80) %this) #5 comdat align 2 {
entry:
  %this.addr = alloca ptr, align 8
  store ptr %this, ptr %this.addr, align 8
  %this1 = load ptr, ptr %this.addr, align 8
  %call = call noundef ptr @_ZNK3smt2mf4node8get_rootEv(ptr noundef nonnull align 8 dereferenceable(80) %this1)
  %m_set = getelementptr inbounds %"class.smt::mf::node", ptr %call, i32 0, i32 8
  %call2 = call noundef ptr @_ZNK10scoped_ptrIN3smt2mf17instantiation_setEE3getEv(ptr noundef nonnull align 8 dereferenceable(8) %m_set)
  ret ptr %call2
}

; Function Attrs: mustprogress uwtable
define linkonce_odr hidden noundef zeroext i1 @_ZNK9table2mapI17default_map_entryISt4pairIP3astjEPN3smt2mf4nodeEE9pair_hashI12obj_ptr_hashIS2_E13unsigned_hashE10default_eqIS4_EE4findERKS4_RS8_(ptr noundef nonnull align 8 dereferenceable(32) %this, ptr noundef nonnull align 8 dereferenceable(12) %k, ptr noundef nonnull align 8 dereferenceable(8) %v) #5 comdat align 2 {
entry:
  %this.addr = alloca ptr, align 8
  %k.addr = alloca ptr, align 8
  %v.addr = alloca ptr, align 8
  %e = alloca ptr, align 8
  store ptr %this, ptr %this.addr, align 8
  store ptr %k, ptr %k.addr, align 8
  store ptr %v, ptr %v.addr, align 8
  %this1 = load ptr, ptr %this.addr, align 8
  %0 = load ptr, ptr %k.addr, align 8
  %call = call noundef ptr @_ZNK9table2mapI17default_map_entryISt4pairIP3astjEPN3smt2mf4nodeEE9pair_hashI12obj_ptr_hashIS2_E13unsigned_hashE10default_eqIS4_EE9find_coreERKS4_(ptr noundef nonnull align 8 dereferenceable(32) %this1, ptr noundef nonnull align 8 dereferenceable(12) %0)
  store ptr %call, ptr %e, align 8
  %1 = load ptr, ptr %e, align 8
  %tobool = icmp ne ptr %1, null
  br i1 %tobool, label %if.then, label %if.end

if.then:                                          ; preds = %entry
  %2 = load ptr, ptr %e, align 8
  %call2 = call noundef nonnull align 8 dereferenceable(24) ptr @_ZN18default_hash_entryI9_key_dataISt4pairIP3astjEPN3smt2mf4nodeEEE8get_dataEv(ptr noundef nonnull align 8 dereferenceable(32) %2)
  %m_value = getelementptr inbounds %struct._key_data, ptr %call2, i32 0, i32 1
  %3 = load ptr, ptr %m_value, align 8
  %4 = load ptr, ptr %v.addr, align 8
  store ptr %3, ptr %4, align 8
  br label %if.end

if.end:                                           ; preds = %if.then, %entry
  %5 = load ptr, ptr %e, align 8
  %cmp = icmp ne ptr null, %5
  ret i1 %cmp
}

; Function Attrs: mustprogress nounwind uwtable
define linkonce_odr hidden void @_ZNSt4pairIP3astjEC2IRP10quantifierRjTnNSt9enable_ifIXaaclsr5_PCCPE22_MoveConstructiblePairIT_T0_EEclsr5_PCCPE30_ImplicitlyMoveConvertiblePairIS9_SA_EEEbE4typeELb1EEEOS9_OSA_(ptr noundef nonnull align 8 dereferenceable(12) %this, ptr noundef nonnull align 8 dereferenceable(8) %__x, ptr noundef nonnull align 4 dereferenceable(4) %__y) unnamed_addr #4 comdat align 2 {
entry:
  %this.addr = alloca ptr, align 8
  %__x.addr = alloca ptr, align 8
  %__y.addr = alloca ptr, align 8
  store ptr %this, ptr %this.addr, align 8
  store ptr %__x, ptr %__x.addr, align 8
  store ptr %__y, ptr %__y.addr, align 8
  %this1 = load ptr, ptr %this.addr, align 8
  %first = getelementptr inbounds %"struct.std::pair", ptr %this1, i32 0, i32 0
  %0 = load ptr, ptr %__x.addr, align 8
  %1 = load ptr, ptr %0, align 8
  store ptr %1, ptr %first, align 8
  %second = getelementptr inbounds %"struct.std::pair", ptr %this1, i32 0, i32 1
  %2 = load ptr, ptr %__y.addr, align 8
  %3 = load i32, ptr %2, align 4
  store i32 %3, ptr %second, align 8
  ret void
}

; Function Attrs: mustprogress nounwind uwtable
define linkonce_odr hidden noundef ptr @_ZNK21quantifier_macro_info10get_flat_qEv(ptr noundef nonnull align 8 dereferenceable(88) %this) #4 comdat align 2 {
entry:
  %this.addr = alloca ptr, align 8
  store ptr %this, ptr %this.addr, align 8
  %this1 = load ptr, ptr %this.addr, align 8
  %m_flat_q = getelementptr inbounds %class.quantifier_macro_info, ptr %this1, i32 0, i32 2
  %call = call noundef ptr @_ZNK7obj_refI10quantifier11ast_managerEcvPS0_Ev(ptr noundef nonnull align 8 dereferenceable(16) %m_flat_q)
  ret ptr %call
}

; Function Attrs: mustprogress nounwind uwtable
define linkonce_odr hidden noundef ptr @_ZNK10scoped_ptrIN3smt2mf10auf_solverEE3getEv(ptr noundef nonnull align 8 dereferenceable(8) %this) #4 comdat align 2 {
entry:
  %this.addr = alloca ptr, align 8
  store ptr %this, ptr %this.addr, align 8
  %this1 = load ptr, ptr %this.addr, align 8
  %m_ptr = getelementptr inbounds %class.scoped_ptr.297, ptr %this1, i32 0, i32 0
  %0 = load ptr, ptr %m_ptr, align 8
  ret ptr %0
}

; Function Attrs: mustprogress uwtable
define linkonce_odr hidden noundef ptr @_ZNK3smt2mf10auf_solver17get_uvar_inst_setEP10quantifierj(ptr noundef nonnull align 8 dereferenceable(344) %this, ptr noundef %q, i32 noundef %i) #5 comdat align 2 {
entry:
  %retval = alloca ptr, align 8
  %this.addr = alloca ptr, align 8
  %q.addr = alloca ptr, align 8
  %i.addr = alloca i32, align 4
  %k = alloca %"struct.std::pair", align 8
  %r = alloca ptr, align 8
  store ptr %this, ptr %this.addr, align 8
  store ptr %q, ptr %q.addr, align 8
  store i32 %i, ptr %i.addr, align 4
  %this1 = load ptr, ptr %this.addr, align 8
  call void @_ZNSt4pairIP3astjEC2IRP10quantifierRjTnNSt9enable_ifIXaaclsr5_PCCPE22_MoveConstructiblePairIT_T0_EEclsr5_PCCPE30_ImplicitlyMoveConvertiblePairIS9_SA_EEEbE4typeELb1EEEOS9_OSA_(ptr noundef nonnull align 8 dereferenceable(12) %k, ptr noundef nonnull align 8 dereferenceable(8) %q.addr, ptr noundef nonnull align 4 dereferenceable(4) %i.addr)
  store ptr null, ptr %r, align 8
  %m_uvars = getelementptr inbounds %"class.smt::mf::auf_solver", ptr %this1, i32 0, i32 8
  %call = call noundef zeroext i1 @_ZNK9table2mapI17default_map_entryISt4pairIP3astjEPN3smt2mf4nodeEE9pair_hashI12obj_ptr_hashIS2_E13unsigned_hashE10default_eqIS4_EE4findERKS4_RS8_(ptr noundef nonnull align 8 dereferenceable(32) %m_uvars, ptr noundef nonnull align 8 dereferenceable(12) %k, ptr noundef nonnull align 8 dereferenceable(8) %r)
  br i1 %call, label %if.then, label %if.end

if.then:                                          ; preds = %entry
  %0 = load ptr, ptr %r, align 8
  %call2 = call noundef ptr @_ZN3smt2mf4node21get_instantiation_setEv(ptr noundef nonnull align 8 dereferenceable(80) %0)
  store ptr %call2, ptr %retval, align 8
  br label %return

if.end:                                           ; preds = %entry
  store ptr null, ptr %retval, align 8
  br label %return

return:                                           ; preds = %if.end, %if.then
  %1 = load ptr, ptr %retval, align 8
  ret ptr %1
}

; Function Attrs: mustprogress nounwind uwtable
define linkonce_odr hidden noundef i32 @_ZNK10quantifier13get_num_declsEv(ptr noundef nonnull align 8 dereferenceable(80) %this) #4 comdat align 2 {
entry:
  %this.addr = alloca ptr, align 8
  store ptr %this, ptr %this.addr, align 8
  %this1 = load ptr, ptr %this.addr, align 8
  %m_num_decls = getelementptr inbounds %class.quantifier, ptr %this1, i32 0, i32 2
  %0 = load i32, ptr %m_num_decls, align 4
  ret i32 %0
}

; Function Attrs: mustprogress nounwind uwtable
define linkonce_odr hidden noundef ptr @_ZNK10scoped_ptrIN3smt2mf10auf_solverEEptEv(ptr noundef nonnull align 8 dereferenceable(8) %this) #4 comdat align 2 {
entry:
  %this.addr = alloca ptr, align 8
  store ptr %this, ptr %this.addr, align 8
  %this1 = load ptr, ptr %this.addr, align 8
  %m_ptr = getelementptr inbounds %class.scoped_ptr.297, ptr %this1, i32 0, i32 0
  %0 = load ptr, ptr %m_ptr, align 8
  ret ptr %0
}

; Function Attrs: mustprogress uwtable
define hidden noundef ptr @_ZN3smt12model_finder19get_flat_quantifierEP10quantifier(ptr noundef nonnull align 8 dereferenceable(128) %this, ptr noundef %q) #5 align 2 {
entry:
  %this.addr = alloca ptr, align 8
  %q.addr = alloca ptr, align 8
  %qinfo = alloca ptr, align 8
  store ptr %this, ptr %this.addr, align 8
  store ptr %q, ptr %q.addr, align 8
  %this1 = load ptr, ptr %this.addr, align 8
  %0 = load ptr, ptr %q.addr, align 8
  %call = call noundef ptr @_ZN3smt12model_finder19get_quantifier_infoEP10quantifier(ptr noundef nonnull align 8 dereferenceable(128) %this1, ptr noundef %0)
  store ptr %call, ptr %qinfo, align 8
  %1 = load ptr, ptr %qinfo, align 8
  %call2 = call noundef ptr @_ZNK21quantifier_macro_info10get_flat_qEv(ptr noundef nonnull align 8 dereferenceable(88) %1)
  ret ptr %call2
}

; Function Attrs: mustprogress uwtable
define hidden noundef ptr @_ZN3smt12model_finder17get_uvar_inst_setEP10quantifierj(ptr noundef nonnull align 8 dereferenceable(128) %this, ptr noundef %q, i32 noundef %i) #5 align 2 {
entry:
  %retval = alloca ptr, align 8
  %this.addr = alloca ptr, align 8
  %q.addr = alloca ptr, align 8
  %i.addr = alloca i32, align 4
  %flat_q = alloca ptr, align 8
  %r = alloca ptr, align 8
  %qinfo = alloca ptr, align 8
  store ptr %this, ptr %this.addr, align 8
  store ptr %q, ptr %q.addr, align 8
  store i32 %i, ptr %i.addr, align 4
  %this1 = load ptr, ptr %this.addr, align 8
  %0 = load ptr, ptr %q.addr, align 8
  %call = call noundef ptr @_ZN3smt12model_finder19get_flat_quantifierEP10quantifier(ptr noundef nonnull align 8 dereferenceable(128) %this1, ptr noundef %0)
  store ptr %call, ptr %flat_q, align 8
  %m_auf_solver = getelementptr inbounds %"class.smt::model_finder", ptr %this1, i32 0, i32 4
  %call2 = call noundef ptr @_ZNK10scoped_ptrIN3smt2mf10auf_solverEEptEv(ptr noundef nonnull align 8 dereferenceable(8) %m_auf_solver)
  %1 = load ptr, ptr %flat_q, align 8
  %2 = load ptr, ptr %flat_q, align 8
  %call3 = call noundef i32 @_ZNK10quantifier13get_num_declsEv(ptr noundef nonnull align 8 dereferenceable(80) %2)
  %3 = load ptr, ptr %q.addr, align 8
  %call4 = call noundef i32 @_ZNK10quantifier13get_num_declsEv(ptr noundef nonnull align 8 dereferenceable(80) %3)
  %sub = sub i32 %call3, %call4
  %4 = load i32, ptr %i.addr, align 4
  %add = add i32 %sub, %4
  %call5 = call noundef ptr @_ZNK3smt2mf10auf_solver17get_uvar_inst_setEP10quantifierj(ptr noundef nonnull align 8 dereferenceable(344) %call2, ptr noundef %1, i32 noundef %add)
  store ptr %call5, ptr %r, align 8
  %5 = load ptr, ptr %r, align 8
  %cmp = icmp ne ptr %5, null
  br i1 %cmp, label %if.then, label %if.end

if.then:                                          ; preds = %entry
  %6 = load ptr, ptr %r, align 8
  store ptr %6, ptr %retval, align 8
  br label %return

if.end:                                           ; preds = %entry
  %7 = load ptr, ptr %q.addr, align 8
  %call6 = call noundef ptr @_ZN3smt12model_finder19get_quantifier_infoEP10quantifier(ptr noundef nonnull align 8 dereferenceable(128) %this1, ptr noundef %7)
  store ptr %call6, ptr %qinfo, align 8
  %8 = load ptr, ptr %qinfo, align 8
  %9 = load i32, ptr %i.addr, align 4
  %m_context = getelementptr inbounds %"class.smt::model_finder", ptr %this1, i32 0, i32 2
  %10 = load ptr, ptr %m_context, align 8
  %m_auf_solver7 = getelementptr inbounds %"class.smt::model_finder", ptr %this1, i32 0, i32 4
  %call8 = call noundef ptr @_ZNK10scoped_ptrIN3smt2mf10auf_solverEE3getEv(ptr noundef nonnull align 8 dereferenceable(8) %m_auf_solver7)
  %call9 = call noundef ptr @_ZN3smt2mf15quantifier_info24get_macro_based_inst_setEjPNS_7contextERNS0_9evaluatorE(ptr noundef nonnull align 8 dereferenceable(128) %8, i32 noundef %9, ptr noundef %10, ptr noundef nonnull align 8 dereferenceable(8) %call8)
  store ptr %call9, ptr %retval, align 8
  br label %return

return:                                           ; preds = %if.end, %if.then
  %11 = load ptr, ptr %retval, align 8
  ret ptr %11
}