; Function Attrs: mustprogress uwtable
define hidden noundef ptr @_ZN3smt12model_finder17get_uvar_inst_setEP10quantifierj(ptr noundef nonnull align 8 dereferenceable(128) %this, ptr noundef %q, i32 noundef %i) local_unnamed_addr #3 align 2 {
entry:
  %ref.tmp.i.i.i = alloca %struct._key_data, align 8
  %call.i = tail call noundef ptr @_ZN3smt12model_finder19get_quantifier_infoEP10quantifier(ptr noundef nonnull align 8 dereferenceable(128) %this, ptr noundef %q)
  %m_flat_q.i.i = getelementptr inbounds i8, ptr %call.i, i64 16
  %0 = load ptr, ptr %m_flat_q.i.i, align 8
  %m_auf_solver = getelementptr inbounds i8, ptr %this, i64 32
  %1 = load ptr, ptr %m_auf_solver, align 8
  %m_num_decls.i = getelementptr inbounds i8, ptr %0, i64 20
  %2 = load i32, ptr %m_num_decls.i, align 4
  %m_num_decls.i6 = getelementptr inbounds i8, ptr %q, i64 20
  %3 = load i32, ptr %m_num_decls.i6, align 4
  %sub = add i32 %2, %i
  %add = sub i32 %sub, %3
  %m_uvars.i = getelementptr inbounds i8, ptr %1, i64 88
  call void @llvm.lifetime.start.p0(i64 24, ptr nonnull %ref.tmp.i.i.i)
  store ptr %0, ptr %ref.tmp.i.i.i, align 8
  %k.sroa.2.0.ref.tmp.i.i.sroa_idx.i = getelementptr inbounds i8, ptr %ref.tmp.i.i.i, i64 8
  store i32 %add, ptr %k.sroa.2.0.ref.tmp.i.i.sroa_idx.i, align 8
  %call.i.i.i = call noundef ptr @_ZNK14core_hashtableI17default_map_entryISt4pairIP3astjEPN3smt2mf4nodeEEN9table2mapIS9_9pair_hashI12obj_ptr_hashIS2_E13unsigned_hashE10default_eqIS4_EE15entry_hash_procENSI_13entry_eq_procEE9find_coreERK9_key_dataIS4_S8_E(ptr noundef nonnull align 8 dereferenceable(28) %m_uvars.i, ptr noundef nonnull align 8 dereferenceable(24) %ref.tmp.i.i.i)
  call void @llvm.lifetime.end.p0(i64 24, ptr nonnull %ref.tmp.i.i.i)
  %tobool.i.not.i = icmp eq ptr %call.i.i.i, null
  br i1 %tobool.i.not.i, label %if.end, label %if.then.i

if.then.i:                                        ; preds = %entry
  %m_value.i.i = getelementptr inbounds i8, ptr %call.i.i.i, i64 24
  %4 = load ptr, ptr %m_value.i.i, align 8
  br label %while.cond.i.i.i

while.cond.i.i.i:                                 ; preds = %while.cond.i.i.i, %if.then.i
  %curr.0.i.i.i = phi ptr [ %4, %if.then.i ], [ %5, %while.cond.i.i.i ]
  %m_find.i.i.i.i = getelementptr inbounds i8, ptr %curr.0.i.i.i, i64 8
  %5 = load ptr, ptr %m_find.i.i.i.i, align 8
  %cmp.i.i.i.i = icmp eq ptr %5, null
  br i1 %cmp.i.i.i.i, label %_ZNK3smt2mf10auf_solver17get_uvar_inst_setEP10quantifierj.exit, label %while.cond.i.i.i, !llvm.loop !18

_ZNK3smt2mf10auf_solver17get_uvar_inst_setEP10quantifierj.exit: ; preds = %while.cond.i.i.i
  %m_set.i.i = getelementptr inbounds i8, ptr %curr.0.i.i.i, i64 56
  %6 = load ptr, ptr %m_set.i.i, align 8
  %cmp.not = icmp eq ptr %6, null
  br i1 %cmp.not, label %if.end, label %return

if.end:                                           ; preds = %entry, %_ZNK3smt2mf10auf_solver17get_uvar_inst_setEP10quantifierj.exit
  %call6 = call noundef ptr @_ZN3smt12model_finder19get_quantifier_infoEP10quantifier(ptr noundef nonnull align 8 dereferenceable(128) %this, ptr noundef nonnull %q)
  %m_context = getelementptr inbounds i8, ptr %this, i64 16
  %7 = load ptr, ptr %m_context, align 8
  %8 = load ptr, ptr %m_auf_solver, align 8
  %call9 = call noundef ptr @_ZN3smt2mf15quantifier_info24get_macro_based_inst_setEjPNS_7contextERNS0_9evaluatorE(ptr noundef nonnull align 8 dereferenceable(128) %call6, i32 noundef %i, ptr noundef %7, ptr noundef nonnull align 8 dereferenceable(8) %8)
  br label %return

return:                                           ; preds = %_ZNK3smt2mf10auf_solver17get_uvar_inst_setEP10quantifierj.exit, %if.end
  %retval.0 = phi ptr [ %call9, %if.end ], [ %6, %_ZNK3smt2mf10auf_solver17get_uvar_inst_setEP10quantifierj.exit ]
  ret ptr %retval.0
}